; Function Attrs: inlinehint mustprogress nounwind uwtable
define internal void @_ZN9grpc_core12_GLOBAL__N_125XdsClusterManagerLbConfigD0Ev(ptr noundef nonnull align 8 dereferenceable(64) %0) unnamed_addr #19 align 2 personality ptr @__gxx_personality_v0 {
  %2 = getelementptr inbounds nuw i8, ptr %0, i64 32
  %.val.i = load ptr, ptr %2, align 8, !tbaa !39
  invoke fastcc void @_ZNSt8_Rb_treeINSt7__cxx1112basic_stringIcSt11char_traitsIcESaIcEEESt4pairIKS5_N9grpc_core12_GLOBAL__N_125XdsClusterManagerLbConfig5ChildEESt10_Select1stISC_ESt4lessIS5_ESaISC_EE8_M_eraseEPSt13_Rb_tree_nodeISC_E(ptr noundef %.val.i)
          to label %_ZN9grpc_core12_GLOBAL__N_125XdsClusterManagerLbConfigD2Ev.exit unwind label %3

3:                                                ; preds = %1
  %4 = landingpad { ptr, i32 }
          catch ptr null
  %5 = extractvalue { ptr, i32 } %4, 0
  tail call void @__clang_call_terminate(ptr %5) #39
  unreachable

_ZN9grpc_core12_GLOBAL__N_125XdsClusterManagerLbConfigD2Ev.exit: ; preds = %1
  tail call void @_ZdlPvm(ptr noundef nonnull %0, i64 noundef 64) #38
  ret void
}